target datalayout = "e-m:e-p270:32:32-p271:32:32-p272:64:64-i64:64-i128:128-f80:128-n8:16:32:64-S128"
target triple = "x86_64-pc-linux-gnu"

%struct.SDL_Renderer = type { ptr, ptr, ptr, ptr, ptr, ptr, ptr, ptr, ptr, ptr, ptr, ptr, ptr, ptr, ptr, ptr, ptr, ptr, ptr, ptr, ptr, ptr, ptr, ptr, ptr, ptr, ptr, ptr, ptr, ptr, i32, i8, ptr, i8, i8, i8, i64, i64, ptr, %struct.SDL_RenderViewState, %struct.SDL_FPoint, i32, i32, ptr, ptr, ptr, i32, float, float, float, float, %struct.SDL_FColor, i32, i32, i32, ptr, ptr, ptr, ptr, i32, %struct.SDL_FColor, float, %struct.SDL_Rect, %struct.SDL_Rect, i8, i8, i8, i8, ptr, i64, i64, i8, ptr, ptr, i32, ptr, i8, ptr, ptr }
%struct.SDL_RenderViewState = type { i32, i32, %struct.SDL_Rect, %struct.SDL_Rect, %struct.SDL_Rect, %struct.SDL_Rect, i8, %struct.SDL_FPoint, i32, i32, i32, %struct.SDL_FRect, %struct.SDL_FRect, %struct.SDL_FPoint, %struct.SDL_FPoint, %struct.SDL_FPoint }
%struct.SDL_FRect = type { float, float, float, float }
%struct.SDL_FPoint = type { float, float }
%struct.SDL_FColor = type { float, float, float, float }
%struct.SDL_Rect = type { i32, i32, i32, i32 }
%struct.GL_RenderData = type { ptr, i8, i8, i32, ptr, ptr, ptr, i32, i8, i8, i8, ptr, ptr, ptr, ptr, ptr, ptr, ptr, ptr, ptr, ptr, ptr, ptr, ptr, ptr, ptr, ptr, ptr, ptr, ptr, ptr, ptr, ptr, ptr, ptr, ptr, ptr, ptr, ptr, ptr, ptr, ptr, ptr, ptr, ptr, ptr, ptr, ptr, ptr, ptr, ptr, ptr, ptr, ptr, ptr, ptr, ptr, ptr, ptr, ptr, i8, ptr, i32, ptr, ptr, ptr, ptr, ptr, ptr, %struct.GL_DrawStateCache }
%struct.GL_DrawStateCache = type { i8, %struct.SDL_Rect, ptr, ptr, i32, i32, i32, i32, [4 x float], ptr, i8, i8, i8, %struct.SDL_Rect, i8, i8, i8, i8, i8, i8, %struct.SDL_FColor, i8, %struct.SDL_FColor }
%struct.SDL_Texture = type { i32, i32, i32, i32, i32, float, float, i32, i32, i32, %struct.SDL_FColor, %struct.SDL_RenderViewState, ptr, ptr, ptr, ptr, i32, %struct.SDL_Rect, ptr, i32, i32, ptr, ptr, ptr }
%struct.GL_TextureData = type { i32, i8, float, float, i32, i32, i32, [4 x float], ptr, ptr, i32, %struct.SDL_Rect, i8, i8, i32, i8, i32, i8, i32, i32, i32, ptr }
%struct.GL_FBOList = type { i32, i32, i32, ptr }

@.str.21 = private unnamed_addr constant [39 x i8] c"Render targets not supported by OpenGL\00", align 1
@.str.54 = private unnamed_addr constant [35 x i8] c"glFramebufferTexture2DEXT() failed\00", align 1

; Function Attrs: nounwind uwtable
define internal zeroext i1 @GL_SetRenderTarget(ptr noundef %0, ptr noundef %1) #0 {
  %3 = alloca i1, align 1
  %4 = alloca ptr, align 8
  %5 = alloca ptr, align 8
  %6 = alloca ptr, align 8
  %7 = alloca ptr, align 8
  %8 = alloca i32, align 4
  %9 = alloca i32, align 4
  store ptr %0, ptr %4, align 8
  store ptr %1, ptr %5, align 8
  call void @llvm.lifetime.start.p0(i64 8, ptr %6) #4
  %10 = load ptr, ptr %4, align 8
  %11 = getelementptr inbounds nuw %struct.SDL_Renderer, ptr %10, i32 0, i32 77
  %12 = load ptr, ptr %11, align 8
  store ptr %12, ptr %6, align 8
  call void @llvm.lifetime.start.p0(i64 8, ptr %7) #4
  call void @llvm.lifetime.start.p0(i64 4, ptr %8) #4
  %13 = load ptr, ptr %4, align 8
  %14 = call zeroext i1 @GL_ActivateRenderer(ptr noundef %13)
  %15 = load ptr, ptr %6, align 8
  %16 = getelementptr inbounds nuw %struct.GL_RenderData, ptr %15, i32 0, i32 10
  %17 = load i8, ptr %16, align 2, !range !3, !noundef !4
  %18 = trunc i8 %17 to i1
  br i1 %18, label %21, label %19

19:                                               ; preds = %2
  %20 = call zeroext i1 (ptr, ...) @SDL_SetError_REAL(ptr noundef @.str.21)
  store i1 %20, ptr %3, align 1
  store i32 1, ptr %9, align 4
  br label %61

21:                                               ; preds = %2
  %22 = load ptr, ptr %6, align 8
  %23 = getelementptr inbounds nuw %struct.GL_RenderData, ptr %22, i32 0, i32 69
  %24 = getelementptr inbounds nuw %struct.GL_DrawStateCache, ptr %23, i32 0, i32 0
  store i8 1, ptr %24, align 8
  %25 = load ptr, ptr %5, align 8
  %26 = icmp ne ptr %25, null
  br i1 %26, label %31, label %27

27:                                               ; preds = %21
  %28 = load ptr, ptr %6, align 8
  %29 = getelementptr inbounds nuw %struct.GL_RenderData, ptr %28, i32 0, i32 66
  %30 = load ptr, ptr %29, align 8
  call void %30(i32 noundef 36160, i32 noundef 0)
  store i1 true, ptr %3, align 1
  store i32 1, ptr %9, align 4
  br label %61

31:                                               ; preds = %21
  %32 = load ptr, ptr %5, align 8
  %33 = getelementptr inbounds nuw %struct.SDL_Texture, ptr %32, i32 0, i32 21
  %34 = load ptr, ptr %33, align 8
  store ptr %34, ptr %7, align 8
  %35 = load ptr, ptr %6, align 8
  %36 = getelementptr inbounds nuw %struct.GL_RenderData, ptr %35, i32 0, i32 66
  %37 = load ptr, ptr %36, align 8
  %38 = load ptr, ptr %7, align 8
  %39 = getelementptr inbounds nuw %struct.GL_TextureData, ptr %38, i32 0, i32 21
  %40 = load ptr, ptr %39, align 8
  %41 = getelementptr inbounds nuw %struct.GL_FBOList, ptr %40, i32 0, i32 2
  %42 = load i32, ptr %41, align 8
  call void %37(i32 noundef 36160, i32 noundef %42)
  %43 = load ptr, ptr %6, align 8
  %44 = getelementptr inbounds nuw %struct.GL_RenderData, ptr %43, i32 0, i32 65
  %45 = load ptr, ptr %44, align 8
  %46 = load ptr, ptr %6, align 8
  %47 = getelementptr inbounds nuw %struct.GL_RenderData, ptr %46, i32 0, i32 7
  %48 = load i32, ptr %47, align 8
  %49 = load ptr, ptr %7, align 8
  %50 = getelementptr inbounds nuw %struct.GL_TextureData, ptr %49, i32 0, i32 0
  %51 = load i32, ptr %50, align 8
  call void %45(i32 noundef 36160, i32 noundef 36064, i32 noundef %48, i32 noundef %51, i32 noundef 0)
  %52 = load ptr, ptr %6, align 8
  %53 = getelementptr inbounds nuw %struct.GL_RenderData, ptr %52, i32 0, i32 67
  %54 = load ptr, ptr %53, align 8
  %55 = call i32 %54(i32 noundef 36160)
  store i32 %55, ptr %8, align 4
  %56 = load i32, ptr %8, align 4
  %57 = icmp ne i32 %56, 36053
  br i1 %57, label %58, label %60

58:                                               ; preds = %31
  %59 = call zeroext i1 (ptr, ...) @SDL_SetError_REAL(ptr noundef @.str.54)
  store i1 %59, ptr %3, align 1
  store i32 1, ptr %9, align 4
  br label %61

60:                                               ; preds = %31
  store i1 true, ptr %3, align 1
  store i32 1, ptr %9, align 4
  br label %61

61:                                               ; preds = %60, %58, %27, %19
  call void @llvm.lifetime.end.p0(i64 4, ptr %8) #4
  call void @llvm.lifetime.end.p0(i64 8, ptr %7) #4
  call void @llvm.lifetime.end.p0(i64 8, ptr %6) #4
  %62 = load i1, ptr %3, align 1
  ret i1 %62
}