; Function Attrs: nounwind uwtable
define internal zeroext i1 @GL_SetRenderTarget(ptr noundef readonly captures(none) %0, ptr noundef readonly captures(address_is_null) %1) #0 {
  %3 = getelementptr inbounds nuw i8, ptr %0, i64 696
  %4 = load ptr, ptr %3, align 8
  %5 = tail call fastcc zeroext i1 @GL_ActivateRenderer(ptr noundef %0)
  %6 = getelementptr inbounds nuw i8, ptr %4, i64 46
  %7 = load i8, ptr %6, align 2, !range !3, !noundef !4
  %8 = trunc nuw i8 %7 to i1
  br i1 %8, label %11, label %9

9:                                                ; preds = %2
  %10 = tail call zeroext i1 (ptr, ...) @SDL_SetError_REAL(ptr noundef nonnull @.str.21) #7
  br label %35

11:                                               ; preds = %2
  %12 = getelementptr inbounds nuw i8, ptr %4, i64 512
  store i8 1, ptr %12, align 8
  %.not = icmp eq ptr %1, null
  br i1 %.not, label %13, label %16

13:                                               ; preds = %11
  %14 = getelementptr inbounds nuw i8, ptr %4, i64 488
  %15 = load ptr, ptr %14, align 8
  tail call void %15(i32 noundef 36160, i32 noundef 0) #7
  br label %35

16:                                               ; preds = %11
  %17 = getelementptr inbounds nuw i8, ptr %1, i64 280
  %18 = load ptr, ptr %17, align 8
  %19 = getelementptr inbounds nuw i8, ptr %4, i64 488
  %20 = load ptr, ptr %19, align 8
  %21 = getelementptr inbounds nuw i8, ptr %18, i64 120
  %22 = load ptr, ptr %21, align 8
  %23 = getelementptr inbounds nuw i8, ptr %22, i64 8
  %24 = load i32, ptr %23, align 8
  tail call void %20(i32 noundef 36160, i32 noundef %24) #7
  %25 = getelementptr inbounds nuw i8, ptr %4, i64 480
  %26 = load ptr, ptr %25, align 8
  %27 = getelementptr inbounds nuw i8, ptr %4, i64 40
  %28 = load i32, ptr %27, align 8
  %29 = load i32, ptr %18, align 8
  tail call void %26(i32 noundef 36160, i32 noundef 36064, i32 noundef %28, i32 noundef %29, i32 noundef 0) #7
  %30 = getelementptr inbounds nuw i8, ptr %4, i64 496
  %31 = load ptr, ptr %30, align 8
  %32 = tail call i32 %31(i32 noundef 36160) #7
  %.not15 = icmp eq i32 %32, 36053
  br i1 %.not15, label %35, label %33

33:                                               ; preds = %16
  %34 = tail call zeroext i1 (ptr, ...) @SDL_SetError_REAL(ptr noundef nonnull @.str.54) #7
  br label %35

35:                                               ; preds = %16, %33, %13, %9
  %.0 = phi i1 [ %34, %33 ], [ true, %13 ], [ %10, %9 ], [ true, %16 ]
  ret i1 %.0
}